target datalayout = "e-m:e-p270:32:32-p271:32:32-p272:64:64-i64:64-i128:128-f80:128-n8:16:32:64-S128"
target triple = "x86_64-pc-linux-gnu"

@.str.17 = private unnamed_addr constant [25 x i8] c"../openssl/test/bntest.c\00", align 1
@ctx = internal global ptr null, align 8
@.str.69 = private unnamed_addr constant [2 x i8] c"0\00", align 1
@.str.108 = private unnamed_addr constant [13 x i8] c"r = BN_new()\00", align 1
@.str.554 = private unnamed_addr constant [29 x i8] c"BN_check_prime(r, ctx, NULL)\00", align 1
@.str.555 = private unnamed_addr constant [30 x i8] c"BN_set_word(r, not_primes[i])\00", align 1
@not_primes = internal global [4 x i32] [i32 -1, i32 0, i32 1, i32 4], align 16

; Function Attrs: nounwind uwtable
define internal i32 @test_not_prime(i32 noundef %0) #0 {
  %2 = alloca i32, align 4
  %3 = alloca i32, align 4
  %4 = alloca ptr, align 8
  %5 = alloca i32, align 4
  store i32 %0, ptr %2, align 4, !tbaa !4
  call void @llvm.lifetime.start.p0(i64 4, ptr %3) #7
  store i32 0, ptr %3, align 4, !tbaa !4
  call void @llvm.lifetime.start.p0(i64 8, ptr %4) #7
  store ptr null, ptr %4, align 8, !tbaa !13
  call void @llvm.lifetime.start.p0(i64 4, ptr %5) #7
  %6 = call ptr @BN_new()
  store ptr %6, ptr %4, align 8, !tbaa !13
  %7 = call i32 @test_ptr(ptr noundef @.str.17, i32 noundef 2701, ptr noundef @.str.108, ptr noundef %6)
  %8 = icmp ne i32 %7, 0
  br i1 %8, label %10, label %9

9:                                                ; preds = %1
  br label %38

10:                                               ; preds = %1
  store i32 0, ptr %5, align 4, !tbaa !4
  br label %11

11:                                               ; preds = %34, %10
  %12 = load i32, ptr %5, align 4, !tbaa !4
  %13 = icmp sle i32 %12, 1
  br i1 %13, label %14, label %37

14:                                               ; preds = %11
  %15 = load ptr, ptr %4, align 8, !tbaa !13
  %16 = load i32, ptr %2, align 4, !tbaa !4
  %17 = sext i32 %16 to i64
  %18 = getelementptr inbounds [4 x i32], ptr @not_primes, i64 0, i64 %17
  %19 = load i32, ptr %18, align 4, !tbaa !4
  %20 = sext i32 %19 to i64
  %21 = call i32 @BN_set_word(ptr noundef %15, i64 noundef %20)
  %22 = icmp ne i32 %21, 0
  %23 = zext i1 %22 to i32
  %24 = call i32 @test_true(ptr noundef @.str.17, i32 noundef 2705, ptr noundef @.str.555, i32 noundef %23)
  %25 = icmp ne i32 %24, 0
  br i1 %25, label %26, label %32

26:                                               ; preds = %14
  %27 = load ptr, ptr %4, align 8, !tbaa !13
  %28 = load ptr, ptr @ctx, align 8, !tbaa !10
  %29 = call i32 @BN_check_prime(ptr noundef %27, ptr noundef %28, ptr noundef null)
  %30 = call i32 @test_int_eq(ptr noundef @.str.17, i32 noundef 2706, ptr noundef @.str.554, ptr noundef @.str.69, i32 noundef %29, i32 noundef 0)
  %31 = icmp ne i32 %30, 0
  br i1 %31, label %33, label %32

32:                                               ; preds = %26, %14
  br label %38

33:                                               ; preds = %26
  br label %34

34:                                               ; preds = %33
  %35 = load i32, ptr %5, align 4, !tbaa !4
  %36 = add nsw i32 %35, 1
  store i32 %36, ptr %5, align 4, !tbaa !4
  br label %11, !llvm.loop !60

37:                                               ; preds = %11
  store i32 1, ptr %3, align 4, !tbaa !4
  br label %38

38:                                               ; preds = %37, %32, %9
  %39 = load ptr, ptr %4, align 8, !tbaa !13
  call void @BN_free(ptr noundef %39)
  %40 = load i32, ptr %3, align 4, !tbaa !4
  call void @llvm.lifetime.end.p0(i64 4, ptr %5) #7
  call void @llvm.lifetime.end.p0(i64 8, ptr %4) #7
  call void @llvm.lifetime.end.p0(i64 4, ptr %3) #7
  ret i32 %40
}