; Function Attrs: nounwind uwtable
define internal range(i32 0, 2) i32 @test_not_prime(i32 noundef %0) #1 {
  %2 = tail call ptr @BN_new() #8
  %3 = tail call i32 @test_ptr(ptr noundef nonnull @.str.17, i32 noundef 2701, ptr noundef nonnull @.str.108, ptr noundef %2) #8
  %.not = icmp eq i32 %3, 0
  br i1 %.not, label %.loopexit, label %.preheader

.preheader:                                       ; preds = %1
  %4 = sext i32 %0 to i64
  %5 = getelementptr inbounds [4 x i32], ptr @not_primes, i64 0, i64 %4
  %6 = load i32, ptr %5, align 4, !tbaa !12
  %7 = sext i32 %6 to i64
  br label %8

8:                                                ; preds = %13, %.preheader
  %.not10 = phi i1 [ false, %.preheader ], [ true, %13 ]
  %9 = tail call i32 @BN_set_word(ptr noundef %2, i64 noundef %7) #8
  %10 = icmp ne i32 %9, 0
  %11 = zext i1 %10 to i32
  %12 = tail call i32 @test_true(ptr noundef nonnull @.str.17, i32 noundef 2705, ptr noundef nonnull @.str.555, i32 noundef %11) #8
  %.not7 = icmp eq i32 %12, 0
  br i1 %.not7, label %.loopexit, label %13

13:                                               ; preds = %8
  %14 = load ptr, ptr @ctx, align 8, !tbaa !6
  %15 = tail call i32 @BN_check_prime(ptr noundef %2, ptr noundef %14, ptr noundef null) #8
  %16 = tail call i32 @test_int_eq(ptr noundef nonnull @.str.17, i32 noundef 2706, ptr noundef nonnull @.str.554, ptr noundef nonnull @.str.69, i32 noundef %15, i32 noundef 0) #8
  %.not8 = icmp eq i32 %16, 0
  %brmerge = or i1 %.not8, %.not10
  br i1 %brmerge, label %.loopexit.loopexit.split.loop.exit, label %8

.loopexit.loopexit.split.loop.exit:               ; preds = %13
  %not..not8.le = xor i1 %.not8, true
  %.mux.le = zext i1 %not..not8.le to i32
  br label %.loopexit

.loopexit:                                        ; preds = %.loopexit.loopexit.split.loop.exit, %8, %1
  %.06 = phi i32 [ 0, %1 ], [ %.mux.le, %.loopexit.loopexit.split.loop.exit ], [ 0, %8 ]
  tail call void @BN_free(ptr noundef %2) #8
  ret i32 %.06
}